target datalayout = "e-m:e-p270:32:32-p271:32:32-p272:64:64-i64:64-i128:128-f80:128-n8:16:32:64-S128"
target triple = "x86_64-pc-linux-gnu"

%struct._lv_font_t = type { ptr, ptr, ptr, i32, i32, i8, i8, i8, ptr, ptr, ptr }
%struct._lv_font_manager_t = type { %struct.lv_ll_t, %struct.lv_ll_t, %struct.lv_ll_t, ptr }
%struct.lv_ll_t = type { i32, ptr, ptr }
%struct.lv_freetype_info_t = type { ptr, i32, i32, i32 }
%struct._lv_font_rec_node_t = type { %struct._lv_font_t, ptr }
%struct._lv_font_refer_node_t = type { ptr, %struct.lv_freetype_info_t, [32 x i8], i32 }

@lv_font_montserrat_14 = external constant %struct._lv_font_t, align 8

; Function Attrs: nounwind uwtable
define internal void @lv_font_manager_delete_font_warpper(ptr noundef %0, ptr noundef %1) #0 {
  %3 = alloca ptr, align 8
  %4 = alloca ptr, align 8
  store ptr %0, ptr %3, align 8, !tbaa !7
  store ptr %1, ptr %4, align 8, !tbaa !7
  br label %5

5:                                                ; preds = %2
  %6 = load ptr, ptr %3, align 8, !tbaa !7
  %7 = icmp ne ptr %6, null
  br i1 %7, label %12, label %8

8:                                                ; preds = %5
  br label %9

9:                                                ; preds = %8
  br label %10

10:                                               ; preds = %9
  br label %11

11:                                               ; preds = %10, %11
  br label %11

12:                                               ; preds = %5
  br label %13

13:                                               ; preds = %12
  br label %14

14:                                               ; preds = %13
  %15 = load ptr, ptr %4, align 8, !tbaa !7
  %16 = icmp ne ptr %15, null
  br i1 %16, label %21, label %17

17:                                               ; preds = %14
  br label %18

18:                                               ; preds = %17
  br label %19

19:                                               ; preds = %18
  br label %20

20:                                               ; preds = %19, %20
  br label %20

21:                                               ; preds = %14
  br label %22

22:                                               ; preds = %21
  %23 = load ptr, ptr %3, align 8, !tbaa !7
  %24 = getelementptr inbounds nuw %struct._lv_font_manager_t, ptr %23, i32 0, i32 3
  %25 = load ptr, ptr %24, align 8, !tbaa !9
  %26 = load ptr, ptr %4, align 8, !tbaa !7
  %27 = getelementptr inbounds nuw %struct._lv_font_refer_node_t, ptr %26, i32 0, i32 0
  %28 = load ptr, ptr %27, align 8, !tbaa !39
  %29 = load ptr, ptr %4, align 8, !tbaa !7
  %30 = getelementptr inbounds nuw %struct._lv_font_refer_node_t, ptr %29, i32 0, i32 1
  call void @lv_font_manager_recycle_set_reuse(ptr noundef %25, ptr noundef %28, ptr noundef %30)
  ret void
}

; Function Attrs: nounwind uwtable
define internal ptr @lv_font_manager_search_refer_node(ptr noundef %0, ptr noundef %1) #0 {
  %3 = alloca ptr, align 8
  %4 = alloca ptr, align 8
  %5 = alloca ptr, align 8
  %6 = alloca ptr, align 8
  %7 = alloca i32, align 4
  store ptr %0, ptr %4, align 8, !tbaa !7
  store ptr %1, ptr %5, align 8, !tbaa !7
  br label %8

8:                                                ; preds = %2
  %9 = load ptr, ptr %4, align 8, !tbaa !7
  %10 = icmp ne ptr %9, null
  br i1 %10, label %15, label %11

11:                                               ; preds = %8
  br label %12

12:                                               ; preds = %11
  br label %13

13:                                               ; preds = %12
  br label %14

14:                                               ; preds = %13, %14
  br label %14

15:                                               ; preds = %8
  br label %16

16:                                               ; preds = %15
  br label %17

17:                                               ; preds = %16
  %18 = load ptr, ptr %5, align 8, !tbaa !7
  %19 = icmp ne ptr %18, null
  br i1 %19, label %24, label %20

20:                                               ; preds = %17
  br label %21

21:                                               ; preds = %20
  br label %22

22:                                               ; preds = %21
  br label %23

23:                                               ; preds = %22, %23
  br label %23

24:                                               ; preds = %17
  br label %25

25:                                               ; preds = %24
  call void @llvm.lifetime.start.p0(i64 8, ptr %6) #6
  %26 = load ptr, ptr %4, align 8, !tbaa !7
  %27 = getelementptr inbounds nuw %struct._lv_font_manager_t, ptr %26, i32 0, i32 0
  %28 = call ptr @lv_ll_get_head(ptr noundef %27)
  store ptr %28, ptr %6, align 8, !tbaa !7
  br label %29

29:                                               ; preds = %43, %25
  %30 = load ptr, ptr %6, align 8, !tbaa !7
  %31 = icmp ne ptr %30, null
  br i1 %31, label %32, label %48

32:                                               ; preds = %29
  %33 = load ptr, ptr %5, align 8, !tbaa !7
  %34 = load ptr, ptr %6, align 8, !tbaa !7
  %35 = getelementptr inbounds nuw %struct._lv_font_refer_node_t, ptr %34, i32 0, i32 1
  %36 = call zeroext i1 @lv_freetype_info_is_equal(ptr noundef %33, ptr noundef %35)
  br i1 %36, label %37, label %42

37:                                               ; preds = %32
  br label %38

38:                                               ; preds = %37
  br label %39

39:                                               ; preds = %38
  br label %40

40:                                               ; preds = %39
  %41 = load ptr, ptr %6, align 8, !tbaa !7
  store ptr %41, ptr %3, align 8
  store i32 1, ptr %7, align 4
  br label %49

42:                                               ; preds = %32
  br label %43

43:                                               ; preds = %42
  %44 = load ptr, ptr %4, align 8, !tbaa !7
  %45 = getelementptr inbounds nuw %struct._lv_font_manager_t, ptr %44, i32 0, i32 0
  %46 = load ptr, ptr %6, align 8, !tbaa !7
  %47 = call ptr @lv_ll_get_next(ptr noundef %45, ptr noundef %46)
  store ptr %47, ptr %6, align 8, !tbaa !7
  br label %29, !llvm.loop !47

48:                                               ; preds = %29
  store ptr null, ptr %3, align 8
  store i32 1, ptr %7, align 4
  br label %49

49:                                               ; preds = %48, %40
  call void @llvm.lifetime.end.p0(i64 8, ptr %6) #6
  %50 = load ptr, ptr %3, align 8
  ret ptr %50
}

; Function Attrs: nounwind uwtable
define internal zeroext i1 @lv_font_manager_reset_freetype_font(ptr noundef %0, ptr noundef %1) #0 {
  %3 = alloca i1, align 1
  %4 = alloca ptr, align 8
  %5 = alloca ptr, align 8
  %6 = alloca ptr, align 8
  %7 = alloca i32, align 4
  store ptr %0, ptr %4, align 8, !tbaa !7
  store ptr %1, ptr %5, align 8, !tbaa !7
  br label %8

8:                                                ; preds = %2
  %9 = load ptr, ptr %4, align 8, !tbaa !7
  %10 = icmp ne ptr %9, null
  br i1 %10, label %15, label %11

11:                                               ; preds = %8
  br label %12

12:                                               ; preds = %11
  br label %13

13:                                               ; preds = %12
  br label %14

14:                                               ; preds = %13, %14
  br label %14

15:                                               ; preds = %8
  br label %16

16:                                               ; preds = %15
  br label %17

17:                                               ; preds = %16
  %18 = load ptr, ptr %5, align 8, !tbaa !7
  %19 = icmp ne ptr %18, null
  br i1 %19, label %24, label %20

20:                                               ; preds = %17
  br label %21

21:                                               ; preds = %20
  br label %22

22:                                               ; preds = %21
  br label %23

23:                                               ; preds = %22, %23
  br label %23

24:                                               ; preds = %17
  br label %25

25:                                               ; preds = %24
  call void @llvm.lifetime.start.p0(i64 8, ptr %6) #6
  %26 = load ptr, ptr %4, align 8, !tbaa !7
  %27 = load ptr, ptr %5, align 8, !tbaa !7
  %28 = getelementptr inbounds nuw %struct._lv_font_refer_node_t, ptr %27, i32 0, i32 1
  %29 = call ptr @lv_font_manager_search_refer_node(ptr noundef %26, ptr noundef %28)
  store ptr %29, ptr %6, align 8, !tbaa !7
  %30 = load ptr, ptr %6, align 8, !tbaa !7
  %31 = icmp ne ptr %30, null
  br i1 %31, label %36, label %32

32:                                               ; preds = %25
  br label %33

33:                                               ; preds = %32
  br label %34

34:                                               ; preds = %33
  br label %35

35:                                               ; preds = %34
  store i1 false, ptr %3, align 1
  store i32 1, ptr %7, align 4
  br label %59

36:                                               ; preds = %25
  %37 = load ptr, ptr %6, align 8, !tbaa !7
  %38 = getelementptr inbounds nuw %struct._lv_font_refer_node_t, ptr %37, i32 0, i32 3
  %39 = load i32, ptr %38, align 8, !tbaa !45
  %40 = add nsw i32 %39, -1
  store i32 %40, ptr %38, align 8, !tbaa !45
  %41 = load ptr, ptr %6, align 8, !tbaa !7
  %42 = getelementptr inbounds nuw %struct._lv_font_refer_node_t, ptr %41, i32 0, i32 3
  %43 = load i32, ptr %42, align 8, !tbaa !45
  %44 = icmp sgt i32 %43, 0
  br i1 %44, label %45, label %49

45:                                               ; preds = %36
  br label %46

46:                                               ; preds = %45
  br label %47

47:                                               ; preds = %46
  br label %48

48:                                               ; preds = %47
  store i1 true, ptr %3, align 1
  store i32 1, ptr %7, align 4
  br label %59

49:                                               ; preds = %36
  %50 = load ptr, ptr %4, align 8, !tbaa !7
  %51 = load ptr, ptr %6, align 8, !tbaa !7
  call void @lv_font_manager_delete_font_warpper(ptr noundef %50, ptr noundef %51)
  %52 = load ptr, ptr %4, align 8, !tbaa !7
  %53 = getelementptr inbounds nuw %struct._lv_font_manager_t, ptr %52, i32 0, i32 0
  %54 = load ptr, ptr %6, align 8, !tbaa !7
  call void @lv_ll_remove(ptr noundef %53, ptr noundef %54)
  %55 = load ptr, ptr %6, align 8, !tbaa !7
  call void @lv_free(ptr noundef %55)
  br label %56

56:                                               ; preds = %49
  br label %57

57:                                               ; preds = %56
  br label %58

58:                                               ; preds = %57
  store i1 true, ptr %3, align 1
  store i32 1, ptr %7, align 4
  br label %59

59:                                               ; preds = %58, %48, %35
  call void @llvm.lifetime.end.p0(i64 8, ptr %6) #6
  %60 = load i1, ptr %3, align 1
  ret i1 %60
}

; Function Attrs: nounwind uwtable
define internal ptr @lv_font_manager_search_rec_node(ptr noundef %0, ptr noundef %1) #0 {
  %3 = alloca ptr, align 8
  %4 = alloca ptr, align 8
  %5 = alloca ptr, align 8
  %6 = alloca ptr, align 8
  %7 = alloca i32, align 4
  store ptr %0, ptr %4, align 8, !tbaa !7
  store ptr %1, ptr %5, align 8, !tbaa !7
  br label %8

8:                                                ; preds = %2
  %9 = load ptr, ptr %4, align 8, !tbaa !7
  %10 = icmp ne ptr %9, null
  br i1 %10, label %15, label %11

11:                                               ; preds = %8
  br label %12

12:                                               ; preds = %11
  br label %13

13:                                               ; preds = %12
  br label %14

14:                                               ; preds = %13, %14
  br label %14

15:                                               ; preds = %8
  br label %16

16:                                               ; preds = %15
  br label %17

17:                                               ; preds = %16
  %18 = load ptr, ptr %5, align 8, !tbaa !7
  %19 = icmp ne ptr %18, null
  br i1 %19, label %24, label %20

20:                                               ; preds = %17
  br label %21

21:                                               ; preds = %20
  br label %22

22:                                               ; preds = %21
  br label %23

23:                                               ; preds = %22, %23
  br label %23

24:                                               ; preds = %17
  br label %25

25:                                               ; preds = %24
  call void @llvm.lifetime.start.p0(i64 8, ptr %6) #6
  %26 = load ptr, ptr %4, align 8, !tbaa !7
  %27 = getelementptr inbounds nuw %struct._lv_font_manager_t, ptr %26, i32 0, i32 1
  %28 = call ptr @lv_ll_get_head(ptr noundef %27)
  store ptr %28, ptr %6, align 8, !tbaa !7
  br label %29

29:                                               ; preds = %43, %25
  %30 = load ptr, ptr %6, align 8, !tbaa !7
  %31 = icmp ne ptr %30, null
  br i1 %31, label %32, label %48

32:                                               ; preds = %29
  %33 = load ptr, ptr %5, align 8, !tbaa !7
  %34 = load ptr, ptr %6, align 8, !tbaa !7
  %35 = getelementptr inbounds nuw %struct._lv_font_rec_node_t, ptr %34, i32 0, i32 0
  %36 = icmp eq ptr %33, %35
  br i1 %36, label %37, label %42

37:                                               ; preds = %32
  br label %38

38:                                               ; preds = %37
  br label %39

39:                                               ; preds = %38
  br label %40

40:                                               ; preds = %39
  %41 = load ptr, ptr %6, align 8, !tbaa !7
  store ptr %41, ptr %3, align 8
  store i32 1, ptr %7, align 4
  br label %49

42:                                               ; preds = %32
  br label %43

43:                                               ; preds = %42
  %44 = load ptr, ptr %4, align 8, !tbaa !7
  %45 = getelementptr inbounds nuw %struct._lv_font_manager_t, ptr %44, i32 0, i32 1
  %46 = load ptr, ptr %6, align 8, !tbaa !7
  %47 = call ptr @lv_ll_get_next(ptr noundef %45, ptr noundef %46)
  store ptr %47, ptr %6, align 8, !tbaa !7
  br label %29, !llvm.loop !49

48:                                               ; preds = %29
  store ptr null, ptr %3, align 8
  store i32 1, ptr %7, align 4
  br label %49

49:                                               ; preds = %48, %40
  call void @llvm.lifetime.end.p0(i64 8, ptr %6) #6
  %50 = load ptr, ptr %3, align 8
  ret ptr %50
}

; Function Attrs: nounwind uwtable
define internal zeroext i1 @lv_font_manager_delete_font_single(ptr noundef %0, ptr noundef %1) #0 {
  %3 = alloca i1, align 1
  %4 = alloca ptr, align 8
  %5 = alloca ptr, align 8
  %6 = alloca ptr, align 8
  %7 = alloca i32, align 4
  %8 = alloca i8, align 1
  store ptr %0, ptr %4, align 8, !tbaa !7
  store ptr %1, ptr %5, align 8, !tbaa !7
  br label %9

9:                                                ; preds = %2
  %10 = load ptr, ptr %4, align 8, !tbaa !7
  %11 = icmp ne ptr %10, null
  br i1 %11, label %16, label %12

12:                                               ; preds = %9
  br label %13

13:                                               ; preds = %12
  br label %14

14:                                               ; preds = %13
  br label %15

15:                                               ; preds = %14, %15
  br label %15

16:                                               ; preds = %9
  br label %17

17:                                               ; preds = %16
  br label %18

18:                                               ; preds = %17
  %19 = load ptr, ptr %5, align 8, !tbaa !7
  %20 = icmp ne ptr %19, null
  br i1 %20, label %25, label %21

21:                                               ; preds = %18
  br label %22

22:                                               ; preds = %21
  br label %23

23:                                               ; preds = %22
  br label %24

24:                                               ; preds = %23, %24
  br label %24

25:                                               ; preds = %18
  br label %26

26:                                               ; preds = %25
  %27 = load ptr, ptr %5, align 8, !tbaa !7
  %28 = icmp eq ptr %27, @lv_font_montserrat_14
  br i1 %28, label %29, label %32

29:                                               ; preds = %26
  br label %30

30:                                               ; preds = %29
  br label %31

31:                                               ; preds = %30
  store i1 false, ptr %3, align 1
  br label %71

32:                                               ; preds = %26
  call void @llvm.lifetime.start.p0(i64 8, ptr %6) #6
  %33 = load ptr, ptr %4, align 8, !tbaa !7
  %34 = load ptr, ptr %5, align 8, !tbaa !7
  %35 = call ptr @lv_font_manager_search_rec_node(ptr noundef %33, ptr noundef %34)
  store ptr %35, ptr %6, align 8, !tbaa !7
  %36 = load ptr, ptr %6, align 8, !tbaa !7
  %37 = icmp ne ptr %36, null
  br i1 %37, label %42, label %38

38:                                               ; preds = %32
  br label %39

39:                                               ; preds = %38
  br label %40

40:                                               ; preds = %39
  br label %41

41:                                               ; preds = %40
  store i1 false, ptr %3, align 1
  store i32 1, ptr %7, align 4
  br label %70

42:                                               ; preds = %32
  call void @llvm.lifetime.start.p0(i64 1, ptr %8) #6
  %43 = load ptr, ptr %4, align 8, !tbaa !7
  %44 = load ptr, ptr %6, align 8, !tbaa !7
  %45 = getelementptr inbounds nuw %struct._lv_font_rec_node_t, ptr %44, i32 0, i32 1
  %46 = load ptr, ptr %45, align 8, !tbaa !42
  %47 = call zeroext i1 @lv_font_manager_reset_freetype_font(ptr noundef %43, ptr noundef %46)
  %48 = zext i1 %47 to i8
  store i8 %48, ptr %8, align 1, !tbaa !23
  br label %49

49:                                               ; preds = %42
  %50 = load i8, ptr %8, align 1, !tbaa !23, !range !15, !noundef !16
  %51 = trunc i8 %50 to i1
  br i1 %51, label %58, label %52

52:                                               ; preds = %49
  br label %53

53:                                               ; preds = %52
  br label %54

54:                                               ; preds = %53
  br label %55

55:                                               ; preds = %54
  br label %56

56:                                               ; preds = %57, %55
  br label %57

57:                                               ; preds = %56
  br label %56

58:                                               ; preds = %49
  br label %59

59:                                               ; preds = %58
  br label %60

60:                                               ; preds = %59
  %61 = load ptr, ptr %4, align 8, !tbaa !7
  %62 = getelementptr inbounds nuw %struct._lv_font_manager_t, ptr %61, i32 0, i32 1
  %63 = load ptr, ptr %6, align 8, !tbaa !7
  call void @lv_ll_remove(ptr noundef %62, ptr noundef %63)
  %64 = load ptr, ptr %6, align 8, !tbaa !7
  call void @lv_free(ptr noundef %64)
  br label %65

65:                                               ; preds = %60
  br label %66

66:                                               ; preds = %65
  br label %67

67:                                               ; preds = %66
  %68 = load i8, ptr %8, align 1, !tbaa !23, !range !15, !noundef !16
  %69 = trunc i8 %68 to i1
  store i1 %69, ptr %3, align 1
  store i32 1, ptr %7, align 4
  call void @llvm.lifetime.end.p0(i64 1, ptr %8) #6
  br label %70

70:                                               ; preds = %67, %41
  call void @llvm.lifetime.end.p0(i64 8, ptr %6) #6
  br label %71

71:                                               ; preds = %70, %31
  %72 = load i1, ptr %3, align 1
  ret i1 %72
}