; Function Attrs: nounwind uwtable
define internal fastcc void @lv_font_manager_delete_font_single(ptr noundef nonnull %0, ptr noundef nonnull readnone %1) unnamed_addr #0 {
  %3 = icmp eq ptr %1, @lv_font_montserrat_14
  br i1 %3, label %28, label %4

4:                                                ; preds = %2
  %5 = getelementptr inbounds nuw i8, ptr %0, i64 24
  %6 = tail call ptr @lv_ll_get_head(ptr noundef nonnull %5) #5
  %.not1314.i = icmp eq ptr %6, null
  %7 = icmp eq ptr %1, %6
  %or.cond15.i = or i1 %.not1314.i, %7
  br i1 %or.cond15.i, label %lv_font_manager_search_rec_node.exit, label %.lr.ph.i

.lr.ph.i:                                         ; preds = %4, %.lr.ph.i
  %.016.i = phi ptr [ %8, %.lr.ph.i ], [ %6, %4 ]
  %8 = tail call ptr @lv_ll_get_next(ptr noundef nonnull %5, ptr noundef nonnull %.016.i) #5
  %.not13.i = icmp eq ptr %8, null
  %9 = icmp eq ptr %1, %8
  %or.cond.i = or i1 %.not13.i, %9
  br i1 %or.cond.i, label %lv_font_manager_search_rec_node.exit, label %.lr.ph.i, !llvm.loop !45

lv_font_manager_search_rec_node.exit:             ; preds = %.lr.ph.i, %4
  %.0.lcssa.i = phi ptr [ %6, %4 ], [ %8, %.lr.ph.i ]
  %.not.not = icmp eq ptr %.0.lcssa.i, null
  br i1 %.not.not, label %28, label %10

10:                                               ; preds = %lv_font_manager_search_rec_node.exit
  %11 = getelementptr inbounds nuw i8, ptr %.0.lcssa.i, i64 64
  %12 = load ptr, ptr %11, align 8, !tbaa !42
  %.not.i = icmp eq ptr %12, null
  br i1 %.not.i, label %.preheader.i, label %13

.preheader.i:                                     ; preds = %10, %.preheader.i
  br label %.preheader.i

13:                                               ; preds = %10
  %14 = getelementptr inbounds nuw i8, ptr %12, i64 8
  %15 = tail call ptr @lv_ll_get_head(ptr noundef nonnull %0) #5
  %.not13.i.i = icmp eq ptr %15, null
  br i1 %.not13.i.i, label %lv_font_manager_reset_freetype_font.exit.preheader, label %.lr.ph.i.i

lv_font_manager_reset_freetype_font.exit.preheader: ; preds = %18, %13
  br label %lv_font_manager_reset_freetype_font.exit

.lr.ph.i.i:                                       ; preds = %13, %18
  %.014.i.i = phi ptr [ %19, %18 ], [ %15, %13 ]
  %16 = getelementptr inbounds nuw i8, ptr %.014.i.i, i64 8
  %17 = tail call zeroext i1 @lv_freetype_info_is_equal(ptr noundef nonnull %14, ptr noundef nonnull %16) #5
  br i1 %17, label %lv_font_manager_search_refer_node.exit.i, label %18

18:                                               ; preds = %.lr.ph.i.i
  %19 = tail call ptr @lv_ll_get_next(ptr noundef nonnull %0, ptr noundef nonnull %.014.i.i) #5
  %.not.i.i = icmp eq ptr %19, null
  br i1 %.not.i.i, label %lv_font_manager_reset_freetype_font.exit.preheader, label %.lr.ph.i.i, !llvm.loop !36

lv_font_manager_search_refer_node.exit.i:         ; preds = %.lr.ph.i.i
  %20 = getelementptr inbounds nuw i8, ptr %.014.i.i, i64 64
  %21 = load i32, ptr %20, align 8, !tbaa !37
  %22 = add nsw i32 %21, -1
  store i32 %22, ptr %20, align 8, !tbaa !37
  %23 = icmp sgt i32 %21, 1
  br i1 %23, label %27, label %24

24:                                               ; preds = %lv_font_manager_search_refer_node.exit.i
  %25 = getelementptr i8, ptr %0, i64 72
  %.val.i = load ptr, ptr %25, align 8, !tbaa !3
  %26 = load ptr, ptr %.014.i.i, align 8, !tbaa !39
  tail call void @lv_font_manager_recycle_set_reuse(ptr noundef %.val.i, ptr noundef %26, ptr noundef nonnull %16) #5
  tail call void @lv_ll_remove(ptr noundef nonnull %0, ptr noundef nonnull %.014.i.i) #5
  tail call void @lv_free(ptr noundef nonnull %.014.i.i) #5
  br label %27

lv_font_manager_reset_freetype_font.exit:         ; preds = %lv_font_manager_reset_freetype_font.exit.preheader, %lv_font_manager_reset_freetype_font.exit
  br label %lv_font_manager_reset_freetype_font.exit

27:                                               ; preds = %lv_font_manager_search_refer_node.exit.i, %24
  tail call void @lv_ll_remove(ptr noundef nonnull %5, ptr noundef nonnull %.0.lcssa.i) #5
  tail call void @lv_free(ptr noundef nonnull %.0.lcssa.i) #5
  br label %28

28:                                               ; preds = %27, %lv_font_manager_search_rec_node.exit, %2
  ret void
}